target datalayout = "e-m:e-p270:32:32-p271:32:32-p272:64:64-i64:64-i128:128-f80:128-n8:16:32:64-S128"
target triple = "x86_64-pc-linux-gnu"

%struct.OSQPVectorf_ = type { ptr, i64 }

; Function Attrs: nounwind uwtable
define double @OSQPVectorf_norm_1(ptr noundef %0) #0 {
  %2 = alloca ptr, align 8
  %3 = alloca i64, align 8
  %4 = alloca i64, align 8
  %5 = alloca ptr, align 8
  %6 = alloca double, align 8
  store ptr %0, ptr %2, align 8
  %7 = load ptr, ptr %2, align 8
  %8 = getelementptr inbounds %struct.OSQPVectorf_, ptr %7, i32 0, i32 1
  %9 = load i64, ptr %8, align 8
  store i64 %9, ptr %4, align 8
  %10 = load ptr, ptr %2, align 8
  %11 = getelementptr inbounds %struct.OSQPVectorf_, ptr %10, i32 0, i32 0
  %12 = load ptr, ptr %11, align 8
  store ptr %12, ptr %5, align 8
  store double 0.000000e+00, ptr %6, align 8
  %13 = load i64, ptr %4, align 8
  %14 = icmp ne i64 %13, 0
  br i1 %14, label %15, label %45

15:                                               ; preds = %1
  store i64 0, ptr %3, align 8
  br label %16

16:                                               ; preds = %41, %15
  %17 = load i64, ptr %3, align 8
  %18 = load i64, ptr %4, align 8
  %19 = icmp slt i64 %17, %18
  br i1 %19, label %20, label %44

20:                                               ; preds = %16
  %21 = load ptr, ptr %5, align 8
  %22 = load i64, ptr %3, align 8
  %23 = getelementptr inbounds double, ptr %21, i64 %22
  %24 = load double, ptr %23, align 8
  %25 = fcmp olt double %24, 0.000000e+00
  br i1 %25, label %26, label %32

26:                                               ; preds = %20
  %27 = load ptr, ptr %5, align 8
  %28 = load i64, ptr %3, align 8
  %29 = getelementptr inbounds double, ptr %27, i64 %28
  %30 = load double, ptr %29, align 8
  %31 = fneg double %30
  br label %37

32:                                               ; preds = %20
  %33 = load ptr, ptr %5, align 8
  %34 = load i64, ptr %3, align 8
  %35 = getelementptr inbounds double, ptr %33, i64 %34
  %36 = load double, ptr %35, align 8
  br label %37

37:                                               ; preds = %32, %26
  %38 = phi double [ %31, %26 ], [ %36, %32 ]
  %39 = load double, ptr %6, align 8
  %40 = fadd double %39, %38
  store double %40, ptr %6, align 8
  br label %41

41:                                               ; preds = %37
  %42 = load i64, ptr %3, align 8
  %43 = add nsw i64 %42, 1
  store i64 %43, ptr %3, align 8
  br label %16, !llvm.loop !40

44:                                               ; preds = %16
  br label %45

45:                                               ; preds = %44, %1
  %46 = load double, ptr %6, align 8
  ret double %46
}