; Function Attrs: nofree norecurse nosync nounwind memory(read, inaccessiblemem: none) uwtable
define double @OSQPVectorf_norm_1(ptr nocapture noundef readonly %0) local_unnamed_addr #0 {
  %2 = getelementptr inbounds i8, ptr %0, i64 8
  %3 = load i64, ptr %2, align 8
  %4 = load ptr, ptr %0, align 8
  %5 = icmp sgt i64 %3, 0
  br i1 %5, label %.lr.ph, label %.loopexit

.lr.ph:                                           ; preds = %1, %.lr.ph
  %.018 = phi double [ %11, %.lr.ph ], [ 0.000000e+00, %1 ]
  %.01317 = phi i64 [ %12, %.lr.ph ], [ 0, %1 ]
  %6 = getelementptr inbounds double, ptr %4, i64 %.01317
  %7 = load double, ptr %6, align 8
  %8 = fcmp olt double %7, 0.000000e+00
  %9 = fneg double %7
  %10 = select i1 %8, double %9, double %7
  %11 = fadd double %.018, %10
  %12 = add nuw nsw i64 %.01317, 1
  %exitcond.not = icmp eq i64 %12, %3
  br i1 %exitcond.not, label %.loopexit, label %.lr.ph, !llvm.loop !40

.loopexit:                                        ; preds = %.lr.ph, %1
  %.1 = phi double [ 0.000000e+00, %1 ], [ %11, %.lr.ph ]
  ret double %.1
}